target datalayout = "e-m:e-p270:32:32-p271:32:32-p272:64:64-i64:64-i128:128-f80:128-n8:16:32:64-S128"
target triple = "x86_64-pc-linux-gnu"

@.str = private unnamed_addr constant [8 x i8] c"Success\00", align 1
@.str.1 = private unnamed_addr constant [25 x i8] c"Not available on this OS\00", align 1
@.str.2 = private unnamed_addr constant [26 x i8] c"Not initialized correctly\00", align 1
@.str.3 = private unnamed_addr constant [22 x i8] c"Buffer not contiguous\00", align 1
@.str.4 = private unnamed_addr constant [19 x i8] c"Unknown error code\00", align 1

; Function Attrs: nounwind uwtable
define hidden ptr @ps_title_errno(i32 noundef %0) #0 {
  %2 = alloca ptr, align 8
  %3 = alloca i32, align 4
  store i32 %0, ptr %3, align 4
  %4 = load i32, ptr %3, align 4
  switch i32 %4, label %9 [
    i32 0, label %5
    i32 1, label %6
    i32 2, label %7
    i32 3, label %8
  ]

5:                                                ; preds = %1
  store ptr @.str, ptr %2, align 8
  br label %10

6:                                                ; preds = %1
  store ptr @.str.1, ptr %2, align 8
  br label %10

7:                                                ; preds = %1
  store ptr @.str.2, ptr %2, align 8
  br label %10

8:                                                ; preds = %1
  store ptr @.str.3, ptr %2, align 8
  br label %10

9:                                                ; preds = %1
  store ptr @.str.4, ptr %2, align 8
  br label %10

10:                                               ; preds = %9, %8, %7, %6, %5
  %11 = load ptr, ptr %2, align 8
  ret ptr %11
}